target datalayout = "e-m:e-p270:32:32-p271:32:32-p272:64:64-i64:64-i128:128-f80:128-n8:16:32:64-S128"
target triple = "x86_64-pc-linux-gnu"

%struct.Splash = type { %struct.ImageFormat, [3 x %struct.DitherSettings], %struct.ImageFormat, [256 x i32], i32, i32, i32, i32, i32, ptr, i32, ptr, %struct.ImageRect, %struct.ImageFormat, ptr, i32, i32, i32, i32, i32, [256 x i32], i32, ptr, i32, ptr, i32, float, [2 x i32], ptr, i64, ptr, ptr, i64, %union.pthread_mutex_t, i64, ptr }
%struct.DitherSettings = type { i32, [512 x i32], [16 x [16 x i32]] }
%struct.ImageRect = type { i32, i32, i32, i32, ptr, ptr, i32, i32, i32 }
%struct.ImageFormat = type { [4 x i32], [4 x i32], i32, i32, i32, ptr, i32, i32, ptr, i32, ptr }
%union.pthread_mutex_t = type { %struct.__pthread_mutex_s }
%struct.__pthread_mutex_s = type { i32, i32, i32, i32, i32, i16, i16, %struct.__pthread_internal_list }
%struct.__pthread_internal_list = type { ptr, ptr }

@SplashGetInstance.splash = internal global %struct.Splash zeroinitializer, align 8
@SplashGetInstance.preInitialized = internal global i32 0, align 4

; Function Attrs: nounwind uwtable
define hidden ptr @SplashGetInstance() #0 {
  %1 = load i32, ptr @SplashGetInstance.preInitialized, align 4
  %2 = icmp ne i32 %1, 0
  br i1 %2, label %4, label %3

3:                                                ; preds = %0
  call void @llvm.memset.p0.i64(ptr align 8 @SplashGetInstance.splash, i8 0, i64 11808, i1 false)
  store i32 -1, ptr getelementptr inbounds (%struct.Splash, ptr @SplashGetInstance.splash, i32 0, i32 16), align 4
  store i32 1, ptr @SplashGetInstance.preInitialized, align 4
  br label %4

4:                                                ; preds = %3, %0
  ret ptr @SplashGetInstance.splash
}

; Function Attrs: nounwind uwtable
define void @SplashSetFileJarName(ptr noundef %0, ptr noundef %1) #0 {
  %3 = alloca ptr, align 8
  %4 = alloca ptr, align 8
  %5 = alloca ptr, align 8
  store ptr %0, ptr %3, align 8
  store ptr %1, ptr %4, align 8
  %6 = call ptr @SplashGetInstance()
  store ptr %6, ptr %5, align 8
  %7 = load ptr, ptr %5, align 8
  %8 = getelementptr inbounds %struct.Splash, ptr %7, i32 0, i32 22
  %9 = load ptr, ptr %8, align 8
  call void @free(ptr noundef %9) #7
  %10 = load ptr, ptr %3, align 8
  %11 = load ptr, ptr %5, align 8
  %12 = getelementptr inbounds %struct.Splash, ptr %11, i32 0, i32 23
  %13 = call ptr @SplashConvertStringAlloc(ptr noundef %10, ptr noundef %12)
  %14 = load ptr, ptr %5, align 8
  %15 = getelementptr inbounds %struct.Splash, ptr %14, i32 0, i32 22
  store ptr %13, ptr %15, align 8
  %16 = load ptr, ptr %5, align 8
  %17 = getelementptr inbounds %struct.Splash, ptr %16, i32 0, i32 24
  %18 = load ptr, ptr %17, align 8
  call void @free(ptr noundef %18) #7
  %19 = load ptr, ptr %4, align 8
  %20 = load ptr, ptr %5, align 8
  %21 = getelementptr inbounds %struct.Splash, ptr %20, i32 0, i32 25
  %22 = call ptr @SplashConvertStringAlloc(ptr noundef %19, ptr noundef %21)
  %23 = load ptr, ptr %5, align 8
  %24 = getelementptr inbounds %struct.Splash, ptr %23, i32 0, i32 24
  store ptr %22, ptr %24, align 8
  ret void
}