; Function Attrs: nounwind uwtable
define void @SplashSetFileJarName(ptr noundef %0, ptr noundef %1) local_unnamed_addr #2 {
  %.b.i = load i1, ptr @SplashGetInstance.preInitialized, align 4
  br i1 %.b.i, label %.SplashGetInstance.exit_crit_edge, label %3

.SplashGetInstance.exit_crit_edge:                ; preds = %2
  %.pre = load ptr, ptr getelementptr inbounds (i8, ptr @SplashGetInstance.splash, i64 11672), align 8
  br label %SplashGetInstance.exit

3:                                                ; preds = %2
  tail call void @llvm.memset.p0.i64(ptr noundef nonnull align 8 dereferenceable(11808) @SplashGetInstance.splash, i8 0, i64 11808, i1 false)
  store i32 -1, ptr getelementptr inbounds (i8, ptr @SplashGetInstance.splash, i64 10628), align 4
  store i1 true, ptr @SplashGetInstance.preInitialized, align 4
  br label %SplashGetInstance.exit

SplashGetInstance.exit:                           ; preds = %.SplashGetInstance.exit_crit_edge, %3
  %4 = phi ptr [ %.pre, %.SplashGetInstance.exit_crit_edge ], [ null, %3 ]
  tail call void @free(ptr noundef %4) #20
  %5 = tail call ptr @SplashConvertStringAlloc(ptr noundef %0, ptr noundef nonnull getelementptr inbounds (i8, ptr @SplashGetInstance.splash, i64 11680)) #20
  store ptr %5, ptr getelementptr inbounds (i8, ptr @SplashGetInstance.splash, i64 11672), align 8
  %6 = load ptr, ptr getelementptr inbounds (i8, ptr @SplashGetInstance.splash, i64 11688), align 8
  tail call void @free(ptr noundef %6) #20
  %7 = tail call ptr @SplashConvertStringAlloc(ptr noundef %1, ptr noundef nonnull getelementptr inbounds (i8, ptr @SplashGetInstance.splash, i64 11696)) #20
  store ptr %7, ptr getelementptr inbounds (i8, ptr @SplashGetInstance.splash, i64 11688), align 8
  ret void
}